; Function Attrs: mustprogress uwtable
define void @_ZN3gmx24ExponentialMovingAverageC2EfRKNS_29ExponentialMovingAverageStateE(ptr nocapture noundef nonnull writeonly align 4 dereferenceable(16) %0, float noundef %1, ptr nocapture noundef nonnull readonly align 4 dereferenceable(9) %2) unnamed_addr #0 align 2 personality ptr @__gxx_personality_v0 {
  %4 = alloca %"class.gmx::InconsistentInputError", align 8
  %5 = alloca %"class.gmx::ExceptionInitializer", align 8
  %6 = alloca %"class.gmx::ExceptionInfo", align 8
  tail call void @llvm.memcpy.p0.p0.i64(ptr noundef nonnull align 4 dereferenceable(12) %0, ptr noundef nonnull align 4 dereferenceable(12) %2, i64 12, i1 false)
  %7 = fcmp olt float %1, 1.000000e+00
  br i1 %7, label %8, label %19

8:                                                ; preds = %3
  %9 = tail call ptr @__cxa_allocate_exception(i64 24) #18
  invoke void @_ZN3gmx20ExceptionInitializerC2EPKc(ptr noundef nonnull align 8 dereferenceable(56) %5, ptr noundef nonnull @.str.13)
          to label %10 unwind label %.thread

10:                                               ; preds = %8
  invoke void @_ZN3gmx16GromacsExceptionC2ERKNS_20ExceptionInitializerE(ptr noundef nonnull align 8 dereferenceable(24) %4, ptr noundef nonnull align 8 dereferenceable(56) %5)
          to label %11 unwind label %.thread17

11:                                               ; preds = %10
  store ptr getelementptr inbounds inrange(-16, 32) ({ [6 x ptr] }, ptr @_ZTVN3gmx22InconsistentInputErrorE, i64 0, i32 0, i64 2), ptr %4, align 8
  store ptr getelementptr inbounds inrange(-16, 16) ({ [4 x ptr] }, ptr @_ZTVN3gmx13ExceptionInfoINS_22ExceptionInfoLocation_ENS_13ThrowLocationEEE, i64 0, i32 0, i64 2), ptr %6, align 8
  %12 = getelementptr inbounds i8, ptr %6, i64 8
  store ptr @__PRETTY_FUNCTION__._ZN3gmx24ExponentialMovingAverageC2EfRKNS_29ExponentialMovingAverageStateE, ptr %12, align 8
  %.sroa.2.0..sroa_idx = getelementptr inbounds i8, ptr %6, i64 16
  store ptr @.str.14, ptr %.sroa.2.0..sroa_idx, align 8
  %.sroa.3.0..sroa_idx = getelementptr inbounds i8, ptr %6, i64 24
  store i32 76, ptr %.sroa.3.0..sroa_idx, align 8
  invoke void @_ZN3gmxlsINS_22InconsistentInputErrorENS_22ExceptionInfoLocation_ENS_13ThrowLocationEEENSt9enable_ifIXsr3std10is_base_ofINS_16GromacsExceptionET_EE5valueES6_E4typeES6_RKNS_13ExceptionInfoIT0_T1_EE(ptr dead_on_unwind writable sret(%"class.gmx::InconsistentInputError") align 8 %9, ptr noundef nonnull %4, ptr noundef nonnull align 8 dereferenceable(32) %6)
          to label %13 unwind label %16

13:                                               ; preds = %11
  invoke void @__cxa_throw(ptr %9, ptr nonnull @_ZTIN3gmx22InconsistentInputErrorE, ptr nonnull @_ZN3gmx22InconsistentInputErrorD2Ev) #21
          to label %23 unwind label %16

.thread:                                          ; preds = %8
  %14 = landingpad { ptr, i32 }
          cleanup
  br label %18

.thread17:                                        ; preds = %10
  %15 = landingpad { ptr, i32 }
          cleanup
  call void @_ZN3gmx20ExceptionInitializerD2Ev(ptr noundef nonnull align 8 dereferenceable(56) %5) #18
  br label %18

16:                                               ; preds = %11, %13
  %.0 = phi i1 [ false, %13 ], [ true, %11 ]
  %17 = landingpad { ptr, i32 }
          cleanup
  call void @_ZN3gmx8internal14IExceptionInfoD2Ev(ptr noundef nonnull align 8 dereferenceable(8) %6) #18
  call void @_ZN3gmx22InconsistentInputErrorD2Ev(ptr noundef nonnull align 8 dereferenceable(24) %4) #18
  call void @_ZN3gmx20ExceptionInitializerD2Ev(ptr noundef nonnull align 8 dereferenceable(56) %5) #18
  br i1 %.0, label %18, label %22

18:                                               ; preds = %.thread17, %.thread, %16
  %.pn.pn16 = phi { ptr, i32 } [ %14, %.thread ], [ %17, %16 ], [ %15, %.thread17 ]
  call void @__cxa_free_exception(ptr %9) #18
  br label %22

19:                                               ; preds = %3
  %20 = fdiv float 1.000000e+00, %1
  %21 = getelementptr inbounds i8, ptr %0, i64 12
  store float %20, ptr %21, align 4
  ret void

22:                                               ; preds = %16, %18
  %.pn.pn15 = phi { ptr, i32 } [ %17, %16 ], [ %.pn.pn16, %18 ]
  resume { ptr, i32 } %.pn.pn15

23:                                               ; preds = %13
  unreachable
}